; Function Attrs: mustprogress uwtable
define hidden void @_ZN7nanogui8ComboBoxC2EPNS_6WidgetERKSt6vectorINSt7__cxx1112basic_stringIcSt11char_traitsIcESaIcEEESaIS9_EE(ptr noundef nonnull align 8 dereferenceable(428) %0, ptr noundef %1, ptr noundef nonnull align 8 dereferenceable(24) %2) unnamed_addr #0 align 2 personality ptr @__gxx_personality_v0 {
  %4 = alloca %"class.std::__cxx11::basic_string", align 8
  %5 = alloca %"class.std::allocator.1", align 1
  call void @_ZNSaIcEC1Ev(ptr noundef nonnull align 1 dereferenceable(1) %5) #13
  %6 = invoke noundef ptr @_ZNSt7__cxx1112basic_stringIcSt11char_traitsIcESaIcEE13_M_local_dataEv(ptr noundef nonnull align 8 dereferenceable(32) %4)
          to label %.noexc unwind label %17

.noexc:                                           ; preds = %3
  invoke void @_ZNSt7__cxx1112basic_stringIcSt11char_traitsIcESaIcEE12_Alloc_hiderC1EPcRKS3_(ptr noundef nonnull align 8 dereferenceable(8) %4, ptr noundef %6, ptr noundef nonnull align 1 dereferenceable(1) %5)
          to label %.noexc9 unwind label %17

.noexc9:                                          ; preds = %.noexc
  invoke void @_ZNSt7__cxx1112basic_stringIcSt11char_traitsIcESaIcEE12_M_constructIPKcEEvT_S8_St20forward_iterator_tag(ptr noundef nonnull align 8 dereferenceable(32) %4, ptr noundef nonnull @.str, ptr noundef nonnull getelementptr inbounds ([9 x i8], ptr @.str, i64 0, i64 8))
          to label %_ZNSt7__cxx1112basic_stringIcSt11char_traitsIcESaIcEEC2IS3_EEPKcRKS3_.exit unwind label %7

7:                                                ; preds = %.noexc9
  %8 = landingpad { ptr, i32 }
          cleanup
  call void @_ZNSaIcED2Ev(ptr noundef nonnull align 1 dereferenceable(1) %4) #13
  br label %.body

_ZNSt7__cxx1112basic_stringIcSt11char_traitsIcESaIcEEC2IS3_EEPKcRKS3_.exit: ; preds = %.noexc9
  invoke void @_ZN7nanogui11PopupButtonC2EPNS_6WidgetERKNSt7__cxx1112basic_stringIcSt11char_traitsIcESaIcEEEi(ptr noundef nonnull align 8 dereferenceable(324) %0, ptr noundef %1, ptr noundef nonnull align 8 dereferenceable(32) %4, i32 noundef 0)
          to label %9 unwind label %19

9:                                                ; preds = %_ZNSt7__cxx1112basic_stringIcSt11char_traitsIcESaIcEEC2IS3_EEPKcRKS3_.exit
  call void @_ZNSt7__cxx1112basic_stringIcSt11char_traitsIcESaIcEED1Ev(ptr noundef nonnull align 8 dereferenceable(32) %4) #13
  call void @_ZNSaIcED1Ev(ptr noundef nonnull align 1 dereferenceable(1) %5) #13
  store ptr getelementptr inbounds ({ [17 x ptr] }, ptr @_ZTVN7nanogui8ComboBoxE, i64 0, i32 0, i64 2), ptr %0, align 8
  %10 = getelementptr inbounds i8, ptr %0, i64 328
  store ptr null, ptr %10, align 8
  %11 = getelementptr inbounds i8, ptr %0, i64 336
  %12 = getelementptr inbounds i8, ptr %0, i64 312
  %13 = load ptr, ptr %12, align 8
  store ptr %13, ptr %11, align 8
  %14 = getelementptr inbounds i8, ptr %0, i64 344
  %15 = getelementptr inbounds i8, ptr %0, i64 368
  %16 = getelementptr inbounds i8, ptr %0, i64 392
  call void @llvm.memset.p0.i64(ptr noundef nonnull align 8 dereferenceable(84) %14, i8 0, i64 84, i1 false)
  invoke void @_ZN7nanogui8ComboBox9set_itemsERKSt6vectorINSt7__cxx1112basic_stringIcSt11char_traitsIcESaIcEEESaIS7_EESB_(ptr noundef nonnull align 8 dereferenceable(428) %0, ptr noundef nonnull align 8 dereferenceable(24) %2, ptr noundef nonnull align 8 dereferenceable(24) %2)
          to label %_ZN7nanogui8ComboBox9set_itemsERKSt6vectorINSt7__cxx1112basic_stringIcSt11char_traitsIcESaIcEEESaIS7_EE.exit unwind label %21

_ZN7nanogui8ComboBox9set_itemsERKSt6vectorINSt7__cxx1112basic_stringIcSt11char_traitsIcESaIcEEESaIS7_EE.exit: ; preds = %9
  ret void

17:                                               ; preds = %.noexc, %3
  %18 = landingpad { ptr, i32 }
          cleanup
  br label %.body

19:                                               ; preds = %_ZNSt7__cxx1112basic_stringIcSt11char_traitsIcESaIcEEC2IS3_EEPKcRKS3_.exit
  %20 = landingpad { ptr, i32 }
          cleanup
  call void @_ZNSt7__cxx1112basic_stringIcSt11char_traitsIcESaIcEED1Ev(ptr noundef nonnull align 8 dereferenceable(32) %4) #13
  br label %.body

.body:                                            ; preds = %17, %7, %19
  %.pn = phi { ptr, i32 } [ %20, %19 ], [ %18, %17 ], [ %8, %7 ]
  call void @_ZNSaIcED1Ev(ptr noundef nonnull align 1 dereferenceable(1) %5) #13
  br label %30

21:                                               ; preds = %9
  %22 = landingpad { ptr, i32 }
          cleanup
  %23 = getelementptr inbounds i8, ptr %0, i64 408
  %24 = load ptr, ptr %23, align 8
  %.not.i.i = icmp eq ptr %24, null
  br i1 %.not.i.i, label %_ZNSt8functionIFviEED2Ev.exit, label %25

25:                                               ; preds = %21
  %26 = invoke noundef zeroext i1 %24(ptr noundef nonnull align 8 dereferenceable(16) %16, ptr noundef nonnull align 8 dereferenceable(16) %16, i32 noundef 3)
          to label %_ZNSt8functionIFviEED2Ev.exit unwind label %27

27:                                               ; preds = %25
  %28 = landingpad { ptr, i32 }
          catch ptr null
  %29 = extractvalue { ptr, i32 } %28, 0
  call void @__clang_call_terminate(ptr %29) #15
  unreachable

_ZNSt8functionIFviEED2Ev.exit:                    ; preds = %21, %25
  call void @_ZNSt6vectorINSt7__cxx1112basic_stringIcSt11char_traitsIcESaIcEEESaIS5_EED2Ev(ptr noundef nonnull align 8 dereferenceable(24) %15) #13
  call void @_ZNSt6vectorINSt7__cxx1112basic_stringIcSt11char_traitsIcESaIcEEESaIS5_EED2Ev(ptr noundef nonnull align 8 dereferenceable(24) %14) #13
  call void @_ZN7nanogui11PopupButtonD2Ev(ptr noundef nonnull align 8 dereferenceable(324) %0) #13
  br label %30

30:                                               ; preds = %_ZNSt8functionIFviEED2Ev.exit, %.body
  %.pn7 = phi { ptr, i32 } [ %22, %_ZNSt8functionIFviEED2Ev.exit ], [ %.pn, %.body ]
  resume { ptr, i32 } %.pn7
}